; Function Attrs: mustprogress uwtable
define void @_ZN8proxygen2hq14HQControlCodec11parseGoawayERN5folly2io6CursorERKNS0_11FrameHeaderE(ptr noalias sret(%"class.folly::Optional") align 8 %agg.result, ptr nocapture noundef nonnull readonly align 16 dereferenceable(232) %this, ptr noundef nonnull align 8 dereferenceable(56) %cursor, ptr noundef nonnull align 8 dereferenceable(16) %header) unnamed_addr #7 align 2 personality ptr @__gxx_personality_v0 {
entry:
  %outStreamId = alloca i64, align 8
  %agg.tmp = alloca %"class.std::unique_ptr", align 8
  call void @_ZN8proxygen2hq11parseGoawayERN5folly2io6CursorERKNS0_11FrameHeaderERm(ptr sret(%"class.folly::Optional") align 8 %agg.result, ptr noundef nonnull align 8 dereferenceable(56) %cursor, ptr noundef nonnull align 8 dereferenceable(16) %header, ptr noundef nonnull align 8 dereferenceable(8) %outStreamId) #25
  %hasValue.i.i = getelementptr inbounds i8, ptr %agg.result, i64 8
  %0 = load i8, ptr %hasValue.i.i, align 8
  %1 = and i8 %0, 1
  %tobool.i.i.not = icmp eq i8 %1, 0
  br i1 %tobool.i.i.not, label %land.lhs.true, label %if.end

land.lhs.true:                                    ; preds = %entry
  %callback_ = getelementptr inbounds i8, ptr %this, i64 56
  %2 = load ptr, ptr %callback_, align 8
  %tobool.not = icmp eq ptr %2, null
  br i1 %tobool.not, label %if.end, label %if.then

if.then:                                          ; preds = %land.lhs.true
  %3 = load i64, ptr %outStreamId, align 8
  store ptr null, ptr %agg.tmp, align 8
  %vtable = load ptr, ptr %2, align 8
  %vfn = getelementptr inbounds i8, ptr %vtable, i64 96
  %4 = load ptr, ptr %vfn, align 8
  invoke void %4(ptr noundef nonnull align 8 dereferenceable(8) %2, i64 noundef %3, i8 noundef zeroext 0, ptr noundef nonnull %agg.tmp)
          to label %invoke.cont unwind label %lpad

invoke.cont:                                      ; preds = %if.then
  %5 = load ptr, ptr %agg.tmp, align 8
  %cmp.not.i = icmp eq ptr %5, null
  br i1 %cmp.not.i, label %if.end, label %_ZNKSt14default_deleteIN5folly5IOBufEEclEPS1_.exit.i

_ZNKSt14default_deleteIN5folly5IOBufEEclEPS1_.exit.i: ; preds = %invoke.cont
  call void @_ZN5folly5IOBufD1Ev(ptr noundef nonnull align 8 dereferenceable(56) %5) #25
  call void @_ZN5folly5IOBufdlEPv(ptr noundef nonnull %5) #25
  br label %if.end

lpad:                                             ; preds = %if.then
  %6 = landingpad { ptr, i32 }
          cleanup
  call void @_ZNSt10unique_ptrIN5folly5IOBufESt14default_deleteIS1_EED2Ev(ptr noundef nonnull align 8 dereferenceable(8) %agg.tmp) #25
  resume { ptr, i32 } %6

if.end:                                           ; preds = %_ZNKSt14default_deleteIN5folly5IOBufEEclEPS1_.exit.i, %invoke.cont, %land.lhs.true, %entry
  ret void
}